target datalayout = "e-m:e-p270:32:32-p271:32:32-p272:64:64-i64:64-i128:128-f80:128-n8:16:32:64-S128"
target triple = "x86_64-pc-linux-gnu"

@.str = private unnamed_addr constant [2 x i8] c"r\00", align 1
@.str.1 = private unnamed_addr constant [31 x i8] c"../openssl/crypto/ts/ts_conf.c\00", align 1
@__func__.TS_CONF_load_key = private unnamed_addr constant [17 x i8] c"TS_CONF_load_key\00", align 1

; Function Attrs: nounwind uwtable
define ptr @TS_CONF_load_key(ptr noundef %0, ptr noundef %1) #0 {
  %3 = alloca ptr, align 8
  %4 = alloca ptr, align 8
  %5 = alloca ptr, align 8
  %6 = alloca ptr, align 8
  store ptr %0, ptr %3, align 8, !tbaa !3
  store ptr %1, ptr %4, align 8, !tbaa !3
  call void @llvm.lifetime.start.p0(i64 8, ptr %5) #7
  store ptr null, ptr %5, align 8, !tbaa !8
  call void @llvm.lifetime.start.p0(i64 8, ptr %6) #7
  store ptr null, ptr %6, align 8, !tbaa !29
  %7 = load ptr, ptr %3, align 8, !tbaa !3
  %8 = call ptr @BIO_new_file(ptr noundef %7, ptr noundef @.str)
  store ptr %8, ptr %5, align 8, !tbaa !8
  %9 = icmp eq ptr %8, null
  br i1 %9, label %10, label %11

10:                                               ; preds = %2
  br label %15

11:                                               ; preds = %2
  %12 = load ptr, ptr %5, align 8, !tbaa !8
  %13 = load ptr, ptr %4, align 8, !tbaa !3
  %14 = call ptr @PEM_read_bio_PrivateKey(ptr noundef %12, ptr noundef null, ptr noundef null, ptr noundef %13)
  store ptr %14, ptr %6, align 8, !tbaa !29
  br label %15

15:                                               ; preds = %11, %10
  %16 = load ptr, ptr %6, align 8, !tbaa !29
  %17 = icmp eq ptr %16, null
  br i1 %17, label %18, label %19

18:                                               ; preds = %15
  call void @ERR_new()
  call void @ERR_set_debug(ptr noundef @.str.1, i32 noundef 118, ptr noundef @__func__.TS_CONF_load_key)
  call void (i32, i32, ptr, ...) @ERR_set_error(i32 noundef 47, i32 noundef 138, ptr noundef null)
  br label %19

19:                                               ; preds = %18, %15
  %20 = load ptr, ptr %5, align 8, !tbaa !8
  %21 = call i32 @BIO_free(ptr noundef %20)
  %22 = load ptr, ptr %6, align 8, !tbaa !29
  call void @llvm.lifetime.end.p0(i64 8, ptr %6) #7
  call void @llvm.lifetime.end.p0(i64 8, ptr %5) #7
  ret ptr %22
}