; Function Attrs: nounwind uwtable
define ptr @TS_CONF_load_key(ptr noundef %0, ptr noundef %1) local_unnamed_addr #0 {
  %3 = tail call ptr @BIO_new_file(ptr noundef %0, ptr noundef nonnull @.str) #4
  %4 = icmp eq ptr %3, null
  br i1 %4, label %.thread, label %5

5:                                                ; preds = %2
  %6 = tail call ptr @PEM_read_bio_PrivateKey(ptr noundef nonnull %3, ptr noundef null, ptr noundef null, ptr noundef %1) #4
  %7 = icmp eq ptr %6, null
  br i1 %7, label %.thread, label %8

.thread:                                          ; preds = %2, %5
  tail call void @ERR_new() #4
  tail call void @ERR_set_debug(ptr noundef nonnull @.str.1, i32 noundef 118, ptr noundef nonnull @__func__.TS_CONF_load_key) #4
  tail call void (i32, i32, ptr, ...) @ERR_set_error(i32 noundef 47, i32 noundef 138, ptr noundef null) #4
  br label %8

8:                                                ; preds = %.thread, %5
  %.08 = phi ptr [ null, %.thread ], [ %6, %5 ]
  %9 = tail call i32 @BIO_free(ptr noundef %3) #4
  ret ptr %.08
}